; Function Attrs: nounwind uwtable
define ptr @Gia_ManAigSyn3(ptr noundef %0, i32 noundef %1, i32 noundef %2) local_unnamed_addr #0 {
  %4 = alloca %struct.Jf_Par_t_, align 8
  call void @Jf_ManSetDefaultPars(ptr noundef nonnull %4) #15
  %5 = getelementptr inbounds nuw i8, ptr %4, i64 20
  store i32 40, ptr %5, align 4
  %.not = icmp eq i32 %1, 0
  br i1 %.not, label %7, label %6

6:                                                ; preds = %3
  call void @Gia_ManPrintStats(ptr noundef %0, ptr noundef null) #15
  br label %7

7:                                                ; preds = %6, %3
  %8 = getelementptr inbounds nuw i8, ptr %0, i64 24
  %9 = load i32, ptr %8, align 8
  %10 = getelementptr inbounds nuw i8, ptr %0, i64 64
  %11 = load ptr, ptr %10, align 8
  %12 = getelementptr i8, ptr %11, i64 4
  %.val.i = load i32, ptr %12, align 4
  %13 = getelementptr inbounds nuw i8, ptr %0, i64 72
  %14 = load ptr, ptr %13, align 8
  %15 = getelementptr i8, ptr %14, i64 4
  %.val3.i = load i32, ptr %15, align 4
  %16 = add i32 %.val.i, 1
  %.neg = add i32 %16, %.val3.i
  %17 = icmp eq i32 %9, %.neg
  br i1 %17, label %18, label %20

18:                                               ; preds = %7
  %19 = call ptr @Gia_ManDup(ptr noundef nonnull %0) #15
  call void @Gia_ManTransferTiming(ptr noundef %19, ptr noundef nonnull %0) #15
  br label %36

20:                                               ; preds = %7
  %21 = call ptr @Gia_ManAreaBalance(ptr noundef nonnull %0, i32 noundef 0, i32 noundef 1000000000, i32 noundef %2, i32 noundef 0) #15
  br i1 %.not, label %.thread34, label %24

.thread34:                                        ; preds = %20
  store i32 6, ptr %4, align 8
  %22 = call ptr @Jf_ManPerformMapping(ptr noundef %21, ptr noundef nonnull %4) #15
  %23 = call ptr @Gia_ManAreaBalance(ptr noundef %22, i32 noundef 0, i32 noundef 1000000000, i32 noundef %2, i32 noundef 0) #15
  br label %27

24:                                               ; preds = %20
  call void @Gia_ManPrintStats(ptr noundef %21, ptr noundef null) #15
  store i32 6, ptr %4, align 8
  %25 = call ptr @Jf_ManPerformMapping(ptr noundef %21, ptr noundef nonnull %4) #15
  call void @Gia_ManPrintStats(ptr noundef %25, ptr noundef null) #15
  %26 = call ptr @Gia_ManAreaBalance(ptr noundef %25, i32 noundef 0, i32 noundef 1000000000, i32 noundef %2, i32 noundef 0) #15
  call void @Gia_ManPrintStats(ptr noundef %26, ptr noundef null) #15
  br label %27

27:                                               ; preds = %.thread34, %24
  %28 = phi ptr [ %23, %.thread34 ], [ %26, %24 ]
  %29 = phi ptr [ %22, %.thread34 ], [ %25, %24 ]
  call void @Gia_ManStop(ptr noundef %29) #15
  store i32 4, ptr %4, align 8
  %30 = call ptr @Jf_ManPerformMapping(ptr noundef %28, ptr noundef nonnull %4) #15
  br i1 %.not, label %.thread35, label %32

.thread35:                                        ; preds = %27
  %31 = call ptr @Gia_ManAreaBalance(ptr noundef %30, i32 noundef 0, i32 noundef 1000000000, i32 noundef %2, i32 noundef 0) #15
  br label %34

32:                                               ; preds = %27
  call void @Gia_ManPrintStats(ptr noundef %30, ptr noundef null) #15
  %33 = call ptr @Gia_ManAreaBalance(ptr noundef %30, i32 noundef 0, i32 noundef 1000000000, i32 noundef %2, i32 noundef 0) #15
  call void @Gia_ManPrintStats(ptr noundef %33, ptr noundef null) #15
  br label %34

34:                                               ; preds = %.thread35, %32
  %35 = phi ptr [ %31, %.thread35 ], [ %33, %32 ]
  call void @Gia_ManStop(ptr noundef %30) #15
  br label %36

36:                                               ; preds = %34, %18
  %.0 = phi ptr [ %19, %18 ], [ %35, %34 ]
  ret ptr %.0
}